; Function Attrs: nounwind uwtable
define range(i32 -2147483648, 1) i32 @show_sources(ptr noundef readnone captures(none) %0, ptr noundef readnone captures(none) %1, ptr noundef %2) local_unnamed_addr #2 {
  %4 = alloca ptr, align 8
  %5 = alloca ptr, align 8
  call void @llvm.lifetime.start.p0(i64 8, ptr nonnull %4) #17
  store ptr null, ptr %4, align 8, !tbaa !13
  call void @llvm.lifetime.start.p0(i64 8, ptr nonnull %5) #17
  store ptr null, ptr %5, align 8, !tbaa !128
  %6 = tail call i32 @av_log_get_level() #17
  tail call void @av_log_set_level(i32 noundef 24) #17
  %.not.i = icmp eq ptr %2, null
  br i1 %.not.i, label %18, label %7

7:                                                ; preds = %3
  %8 = tail call noalias ptr @av_strdup(ptr noundef nonnull %2) #17
  store ptr %8, ptr %4, align 8, !tbaa !13
  %.not22.i = icmp eq ptr %8, null
  br i1 %.not22.i, label %.critedge26, label %9

9:                                                ; preds = %7
  %10 = tail call ptr @strchr(ptr noundef nonnull dereferenceable(1) %8, i32 noundef 44) #18
  %.not23.i = icmp eq ptr %10, null
  br i1 %.not23.i, label %show_sinks_sources_parse_arg.exit, label %11

11:                                               ; preds = %9
  %12 = getelementptr inbounds nuw i8, ptr %10, i64 1
  store i8 0, ptr %10, align 1, !tbaa !8
  %13 = load i8, ptr %12, align 1, !tbaa !8
  %.not24.i = icmp eq i8 %13, 0
  br i1 %.not24.i, label %show_sinks_sources_parse_arg.exit, label %14

14:                                               ; preds = %11
  %15 = call i32 @av_dict_parse_string(ptr noundef nonnull %5, ptr noundef nonnull %12, ptr noundef nonnull @.str.37, ptr noundef nonnull @.str.38, i32 noundef 0) #17
  %16 = icmp slt i32 %15, 0
  br i1 %16, label %17, label %show_sinks_sources_parse_arg.exit

17:                                               ; preds = %14
  call void @av_freep(ptr noundef nonnull %4) #17
  br label %.critedge26

18:                                               ; preds = %3
  %puts.i = tail call i32 @puts(ptr nonnull dereferenceable(1) @str.16)
  br label %show_sinks_sources_parse_arg.exit

show_sinks_sources_parse_arg.exit:                ; preds = %9, %11, %14, %18
  %19 = phi ptr [ %8, %9 ], [ %8, %11 ], [ %8, %14 ], [ null, %18 ]
  %20 = call ptr @av_input_audio_device_next(ptr noundef null) #17
  %.not29 = icmp eq ptr %20, null
  br i1 %.not29, label %.critedge.preheader, label %.lr.ph.preheader

.lr.ph.preheader:                                 ; preds = %show_sinks_sources_parse_arg.exit
  %.not20 = icmp eq ptr %19, null
  br label %.lr.ph

.critedge.preheader:                              ; preds = %30, %show_sinks_sources_parse_arg.exit
  %21 = call ptr @av_input_video_device_next(ptr noundef null) #17
  %.not2230 = icmp eq ptr %21, null
  br i1 %.not2230, label %.critedge26, label %.lr.ph31.preheader

.lr.ph31.preheader:                               ; preds = %.critedge.preheader
  %.not23 = icmp eq ptr %19, null
  br label %.lr.ph31

.lr.ph:                                           ; preds = %.lr.ph.preheader, %30
  %22 = phi ptr [ %31, %30 ], [ %20, %.lr.ph.preheader ]
  %23 = load ptr, ptr %22, align 8, !tbaa !16
  %24 = call i32 @strcmp(ptr noundef nonnull dereferenceable(1) %23, ptr noundef nonnull dereferenceable(6) @.str.72) #18
  %.not19 = icmp eq i32 %24, 0
  br i1 %.not19, label %30, label %25

25:                                               ; preds = %.lr.ph
  br i1 %.not20, label %28, label %26

26:                                               ; preds = %25
  %27 = call i32 @av_match_name(ptr noundef nonnull %19, ptr noundef nonnull %23) #17
  %.not21 = icmp eq i32 %27, 0
  br i1 %.not21, label %30, label %28

28:                                               ; preds = %26, %25
  %29 = load ptr, ptr %5, align 8, !tbaa !128
  call fastcc void @print_device_sources(ptr noundef %22, ptr noundef %29)
  br label %30

30:                                               ; preds = %28, %26, %.lr.ph
  %31 = call ptr @av_input_audio_device_next(ptr noundef nonnull %22) #17
  %.not = icmp eq ptr %31, null
  br i1 %.not, label %.critedge.preheader, label %.lr.ph, !llvm.loop !130

.lr.ph31:                                         ; preds = %.lr.ph31.preheader, %.critedge
  %32 = phi ptr [ %38, %.critedge ], [ %21, %.lr.ph31.preheader ]
  br i1 %.not23, label %36, label %33

33:                                               ; preds = %.lr.ph31
  %34 = load ptr, ptr %32, align 8, !tbaa !16
  %35 = call i32 @av_match_name(ptr noundef nonnull %19, ptr noundef %34) #17
  %.not24 = icmp eq i32 %35, 0
  br i1 %.not24, label %.critedge, label %36

36:                                               ; preds = %33, %.lr.ph31
  %37 = load ptr, ptr %5, align 8, !tbaa !128
  call fastcc void @print_device_sources(ptr noundef %32, ptr noundef %37)
  br label %.critedge

.critedge:                                        ; preds = %36, %33
  %38 = call ptr @av_input_video_device_next(ptr noundef nonnull %32) #17
  %.not22 = icmp eq ptr %38, null
  br i1 %.not22, label %.critedge26, label %.lr.ph31, !llvm.loop !131

.critedge26:                                      ; preds = %.critedge, %.critedge.preheader, %7, %17
  %.1.i28 = phi i32 [ -12, %7 ], [ %15, %17 ], [ 0, %.critedge.preheader ], [ 0, %.critedge ]
  call void @av_dict_free(ptr noundef nonnull %5) #17
  %39 = load ptr, ptr %4, align 8, !tbaa !13
  call void @av_free(ptr noundef %39) #17
  call void @av_log_set_level(i32 noundef %6) #17
  call void @llvm.lifetime.end.p0(i64 8, ptr nonnull %5) #17
  call void @llvm.lifetime.end.p0(i64 8, ptr nonnull %4) #17
  ret i32 %.1.i28
}